target datalayout = "e-m:e-p270:32:32-p271:32:32-p272:64:64-i64:64-i128:128-f80:128-n8:16:32:64-S128"
target triple = "x86_64-pc-linux-gnu"

%struct.Tuplestorestate = type { i32, i32, i8, i8, i8, i8, i64, i64, i64, i64, ptr, ptr, ptr, ptr, ptr, ptr, ptr, i32, i32, i32, i8, ptr, i32, i32, i32, i32, i64 }
%struct.TSReadPointer = type { i32, i8, i32, i32, i64 }

; Function Attrs: nounwind uwtable
define internal void @tuplestore_updatemax(ptr noundef %0) #0 {
  %2 = alloca ptr, align 8
  store ptr %0, ptr %2, align 8
  %3 = load ptr, ptr %2, align 8
  %4 = getelementptr inbounds nuw %struct.Tuplestorestate, ptr %3, i32 0, i32 0
  %5 = load i32, ptr %4, align 8
  %6 = icmp eq i32 %5, 0
  br i1 %6, label %7, label %35

7:                                                ; preds = %1
  %8 = load ptr, ptr %2, align 8
  %9 = getelementptr inbounds nuw %struct.Tuplestorestate, ptr %8, i32 0, i32 6
  %10 = load i64, ptr %9, align 8
  %11 = load ptr, ptr %2, align 8
  %12 = getelementptr inbounds nuw %struct.Tuplestorestate, ptr %11, i32 0, i32 8
  %13 = load i64, ptr %12, align 8
  %14 = load ptr, ptr %2, align 8
  %15 = getelementptr inbounds nuw %struct.Tuplestorestate, ptr %14, i32 0, i32 7
  %16 = load i64, ptr %15, align 8
  %17 = sub i64 %13, %16
  %18 = icmp sgt i64 %10, %17
  br i1 %18, label %19, label %23

19:                                               ; preds = %7
  %20 = load ptr, ptr %2, align 8
  %21 = getelementptr inbounds nuw %struct.Tuplestorestate, ptr %20, i32 0, i32 6
  %22 = load i64, ptr %21, align 8
  br label %31

23:                                               ; preds = %7
  %24 = load ptr, ptr %2, align 8
  %25 = getelementptr inbounds nuw %struct.Tuplestorestate, ptr %24, i32 0, i32 8
  %26 = load i64, ptr %25, align 8
  %27 = load ptr, ptr %2, align 8
  %28 = getelementptr inbounds nuw %struct.Tuplestorestate, ptr %27, i32 0, i32 7
  %29 = load i64, ptr %28, align 8
  %30 = sub i64 %26, %29
  br label %31

31:                                               ; preds = %23, %19
  %32 = phi i64 [ %22, %19 ], [ %30, %23 ]
  %33 = load ptr, ptr %2, align 8
  %34 = getelementptr inbounds nuw %struct.Tuplestorestate, ptr %33, i32 0, i32 6
  store i64 %32, ptr %34, align 8
  br label %59

35:                                               ; preds = %1
  %36 = load ptr, ptr %2, align 8
  %37 = getelementptr inbounds nuw %struct.Tuplestorestate, ptr %36, i32 0, i32 6
  %38 = load i64, ptr %37, align 8
  %39 = load ptr, ptr %2, align 8
  %40 = getelementptr inbounds nuw %struct.Tuplestorestate, ptr %39, i32 0, i32 10
  %41 = load ptr, ptr %40, align 8
  %42 = call i64 @BufFileSize(ptr noundef %41)
  %43 = icmp sgt i64 %38, %42
  br i1 %43, label %44, label %48

44:                                               ; preds = %35
  %45 = load ptr, ptr %2, align 8
  %46 = getelementptr inbounds nuw %struct.Tuplestorestate, ptr %45, i32 0, i32 6
  %47 = load i64, ptr %46, align 8
  br label %53

48:                                               ; preds = %35
  %49 = load ptr, ptr %2, align 8
  %50 = getelementptr inbounds nuw %struct.Tuplestorestate, ptr %49, i32 0, i32 10
  %51 = load ptr, ptr %50, align 8
  %52 = call i64 @BufFileSize(ptr noundef %51)
  br label %53

53:                                               ; preds = %48, %44
  %54 = phi i64 [ %47, %44 ], [ %52, %48 ]
  %55 = load ptr, ptr %2, align 8
  %56 = getelementptr inbounds nuw %struct.Tuplestorestate, ptr %55, i32 0, i32 6
  store i64 %54, ptr %56, align 8
  %57 = load ptr, ptr %2, align 8
  %58 = getelementptr inbounds nuw %struct.Tuplestorestate, ptr %57, i32 0, i32 5
  store i8 1, ptr %58, align 1
  br label %59

59:                                               ; preds = %53, %31
  ret void
}

; Function Attrs: nounwind uwtable
define dso_local void @tuplestore_clear(ptr noundef %0) #0 {
  %2 = alloca ptr, align 8
  %3 = alloca i32, align 4
  %4 = alloca ptr, align 8
  store ptr %0, ptr %2, align 8
  call void @llvm.lifetime.start.p0(i64 4, ptr %3) #7
  call void @llvm.lifetime.start.p0(i64 8, ptr %4) #7
  %5 = load ptr, ptr %2, align 8
  call void @tuplestore_updatemax(ptr noundef %5)
  %6 = load ptr, ptr %2, align 8
  %7 = getelementptr inbounds nuw %struct.Tuplestorestate, ptr %6, i32 0, i32 10
  %8 = load ptr, ptr %7, align 8
  %9 = icmp ne ptr %8, null
  br i1 %9, label %10, label %14

10:                                               ; preds = %1
  %11 = load ptr, ptr %2, align 8
  %12 = getelementptr inbounds nuw %struct.Tuplestorestate, ptr %11, i32 0, i32 10
  %13 = load ptr, ptr %12, align 8
  call void @BufFileClose(ptr noundef %13)
  br label %14

14:                                               ; preds = %10, %1
  %15 = load ptr, ptr %2, align 8
  %16 = getelementptr inbounds nuw %struct.Tuplestorestate, ptr %15, i32 0, i32 10
  store ptr null, ptr %16, align 8
  %17 = load ptr, ptr %2, align 8
  %18 = getelementptr inbounds nuw %struct.Tuplestorestate, ptr %17, i32 0, i32 11
  %19 = load ptr, ptr %18, align 8
  call void @MemoryContextReset(ptr noundef %19)
  %20 = load ptr, ptr %2, align 8
  %21 = getelementptr inbounds nuw %struct.Tuplestorestate, ptr %20, i32 0, i32 8
  %22 = load i64, ptr %21, align 8
  %23 = load ptr, ptr %2, align 8
  %24 = getelementptr inbounds nuw %struct.Tuplestorestate, ptr %23, i32 0, i32 7
  store i64 %22, ptr %24, align 8
  %25 = load ptr, ptr %2, align 8
  %26 = getelementptr inbounds nuw %struct.Tuplestorestate, ptr %25, i32 0, i32 16
  %27 = load ptr, ptr %26, align 8
  %28 = call i64 @GetMemoryChunkSpace(ptr noundef %27)
  %29 = load ptr, ptr %2, align 8
  %30 = getelementptr inbounds nuw %struct.Tuplestorestate, ptr %29, i32 0, i32 7
  %31 = load i64, ptr %30, align 8
  %32 = sub i64 %31, %28
  store i64 %32, ptr %30, align 8
  %33 = load ptr, ptr %2, align 8
  %34 = getelementptr inbounds nuw %struct.Tuplestorestate, ptr %33, i32 0, i32 0
  store i32 0, ptr %34, align 8
  %35 = load ptr, ptr %2, align 8
  %36 = getelementptr inbounds nuw %struct.Tuplestorestate, ptr %35, i32 0, i32 4
  store i8 0, ptr %36, align 2
  %37 = load ptr, ptr %2, align 8
  %38 = getelementptr inbounds nuw %struct.Tuplestorestate, ptr %37, i32 0, i32 17
  store i32 0, ptr %38, align 8
  %39 = load ptr, ptr %2, align 8
  %40 = getelementptr inbounds nuw %struct.Tuplestorestate, ptr %39, i32 0, i32 18
  store i32 0, ptr %40, align 4
  %41 = load ptr, ptr %2, align 8
  %42 = getelementptr inbounds nuw %struct.Tuplestorestate, ptr %41, i32 0, i32 9
  store i64 0, ptr %42, align 8
  %43 = load ptr, ptr %2, align 8
  %44 = getelementptr inbounds nuw %struct.Tuplestorestate, ptr %43, i32 0, i32 21
  %45 = load ptr, ptr %44, align 8
  store ptr %45, ptr %4, align 8
  store i32 0, ptr %3, align 4
  br label %46

46:                                               ; preds = %57, %14
  %47 = load i32, ptr %3, align 4
  %48 = load ptr, ptr %2, align 8
  %49 = getelementptr inbounds nuw %struct.Tuplestorestate, ptr %48, i32 0, i32 23
  %50 = load i32, ptr %49, align 4
  %51 = icmp slt i32 %47, %50
  br i1 %51, label %52, label %62

52:                                               ; preds = %46
  %53 = load ptr, ptr %4, align 8
  %54 = getelementptr inbounds nuw %struct.TSReadPointer, ptr %53, i32 0, i32 1
  store i8 0, ptr %54, align 4
  %55 = load ptr, ptr %4, align 8
  %56 = getelementptr inbounds nuw %struct.TSReadPointer, ptr %55, i32 0, i32 2
  store i32 0, ptr %56, align 8
  br label %57

57:                                               ; preds = %52
  %58 = load ptr, ptr %4, align 8
  %59 = getelementptr inbounds nuw %struct.TSReadPointer, ptr %58, i32 1
  store ptr %59, ptr %4, align 8
  %60 = load i32, ptr %3, align 4
  %61 = add i32 %60, 1
  store i32 %61, ptr %3, align 4
  br label %46, !llvm.loop !8

62:                                               ; preds = %46
  call void @llvm.lifetime.end.p0(i64 8, ptr %4) #7
  call void @llvm.lifetime.end.p0(i64 4, ptr %3) #7
  ret void
}