; Function Attrs: nounwind uwtable
define dso_local void @tuplestore_clear(ptr noundef captures(none) initializes((10, 11), (40, 48), (104, 112)) %0) local_unnamed_addr #0 {
  %2 = load i32, ptr %0, align 8
  %3 = icmp eq i32 %2, 0
  %4 = getelementptr inbounds nuw i8, ptr %0, i64 16
  %5 = load i64, ptr %4, align 8
  br i1 %3, label %6, label %12

6:                                                ; preds = %1
  %7 = getelementptr inbounds nuw i8, ptr %0, i64 32
  %8 = load i64, ptr %7, align 8
  %9 = getelementptr inbounds nuw i8, ptr %0, i64 24
  %10 = load i64, ptr %9, align 8
  %11 = sub i64 %8, %10
  %..i = tail call i64 @llvm.smax.i64(i64 %5, i64 %11)
  store i64 %..i, ptr %4, align 8
  br label %tuplestore_updatemax.exit

12:                                               ; preds = %1
  %13 = getelementptr inbounds nuw i8, ptr %0, i64 48
  %14 = load ptr, ptr %13, align 8
  %15 = tail call i64 @BufFileSize(ptr noundef %14) #9
  %16 = icmp sgt i64 %5, %15
  br i1 %16, label %17, label %19

17:                                               ; preds = %12
  %18 = load i64, ptr %4, align 8
  br label %22

19:                                               ; preds = %12
  %20 = load ptr, ptr %13, align 8
  %21 = tail call i64 @BufFileSize(ptr noundef %20) #9
  br label %22

22:                                               ; preds = %19, %17
  %23 = phi i64 [ %18, %17 ], [ %21, %19 ]
  store i64 %23, ptr %4, align 8
  %24 = getelementptr inbounds nuw i8, ptr %0, i64 11
  store i8 1, ptr %24, align 1
  br label %tuplestore_updatemax.exit

tuplestore_updatemax.exit:                        ; preds = %6, %22
  %25 = getelementptr inbounds nuw i8, ptr %0, i64 48
  %26 = load ptr, ptr %25, align 8
  %.not = icmp eq ptr %26, null
  br i1 %.not, label %28, label %27

27:                                               ; preds = %tuplestore_updatemax.exit
  tail call void @BufFileClose(ptr noundef nonnull %26) #9
  br label %28

28:                                               ; preds = %27, %tuplestore_updatemax.exit
  store ptr null, ptr %25, align 8
  %29 = getelementptr inbounds nuw i8, ptr %0, i64 56
  %30 = load ptr, ptr %29, align 8
  tail call void @MemoryContextReset(ptr noundef %30) #9
  %31 = getelementptr inbounds nuw i8, ptr %0, i64 32
  %32 = load i64, ptr %31, align 8
  %33 = getelementptr inbounds nuw i8, ptr %0, i64 24
  store i64 %32, ptr %33, align 8
  %34 = getelementptr inbounds nuw i8, ptr %0, i64 96
  %35 = load ptr, ptr %34, align 8
  %36 = tail call i64 @GetMemoryChunkSpace(ptr noundef %35) #9
  %37 = load i64, ptr %33, align 8
  %38 = sub i64 %37, %36
  store i64 %38, ptr %33, align 8
  store i32 0, ptr %0, align 8
  %39 = getelementptr inbounds nuw i8, ptr %0, i64 10
  store i8 0, ptr %39, align 2
  %40 = getelementptr inbounds nuw i8, ptr %0, i64 104
  store i32 0, ptr %40, align 8
  %41 = getelementptr inbounds nuw i8, ptr %0, i64 108
  store i32 0, ptr %41, align 4
  %42 = getelementptr inbounds nuw i8, ptr %0, i64 40
  store i64 0, ptr %42, align 8
  %43 = getelementptr inbounds nuw i8, ptr %0, i64 132
  %44 = load i32, ptr %43, align 4
  %45 = icmp sgt i32 %44, 0
  br i1 %45, label %.lr.ph.preheader, label %._crit_edge

.lr.ph.preheader:                                 ; preds = %28
  %46 = getelementptr inbounds nuw i8, ptr %0, i64 120
  %47 = load ptr, ptr %46, align 8
  br label %.lr.ph

.lr.ph:                                           ; preds = %.lr.ph.preheader, %.lr.ph
  %.023 = phi ptr [ %50, %.lr.ph ], [ %47, %.lr.ph.preheader ]
  %.02022 = phi i32 [ %51, %.lr.ph ], [ 0, %.lr.ph.preheader ]
  %48 = getelementptr inbounds nuw i8, ptr %.023, i64 4
  store i8 0, ptr %48, align 4
  %49 = getelementptr inbounds nuw i8, ptr %.023, i64 8
  store i32 0, ptr %49, align 8
  %50 = getelementptr inbounds nuw i8, ptr %.023, i64 24
  %51 = add nuw nsw i32 %.02022, 1
  %52 = load i32, ptr %43, align 4
  %53 = icmp slt i32 %51, %52
  br i1 %53, label %.lr.ph, label %._crit_edge, !llvm.loop !8

._crit_edge:                                      ; preds = %.lr.ph, %28
  ret void
}